; Function Attrs: nounwind uwtable
define range(i32 0, 1048576) i32 @Abc_NtkLevelReverse(ptr noundef captures(none) %0) local_unnamed_addr #0 {
  %2 = getelementptr i8, ptr %0, i64 64
  %.val2628 = load ptr, ptr %2, align 8, !tbaa !48
  %3 = getelementptr i8, ptr %.val2628, i64 4
  %.val26.val29 = load i32, ptr %3, align 4, !tbaa !41
  %4 = icmp sgt i32 %.val26.val29, 0
  br i1 %4, label %.lr.ph, label %.critedge

.lr.ph:                                           ; preds = %1, %.lr.ph
  %indvars.iv = phi i64 [ %indvars.iv.next, %.lr.ph ], [ 0, %1 ]
  %.val2631 = phi ptr [ %.val26, %.lr.ph ], [ %.val2628, %1 ]
  %5 = getelementptr i8, ptr %.val2631, i64 8
  %.val27.val = load ptr, ptr %5, align 8, !tbaa !36
  %6 = getelementptr inbounds nuw ptr, ptr %.val27.val, i64 %indvars.iv
  %7 = load ptr, ptr %6, align 8, !tbaa !38
  %8 = getelementptr inbounds nuw i8, ptr %7, i64 20
  %9 = load i32, ptr %8, align 4
  %10 = and i32 %9, 4095
  store i32 %10, ptr %8, align 4
  %indvars.iv.next = add nuw nsw i64 %indvars.iv, 1
  %.val26 = load ptr, ptr %2, align 8, !tbaa !48
  %11 = getelementptr i8, ptr %.val26, i64 4
  %.val26.val = load i32, ptr %11, align 4, !tbaa !41
  %12 = sext i32 %.val26.val to i64
  %13 = icmp slt i64 %indvars.iv.next, %12
  br i1 %13, label %.lr.ph, label %.critedge, !llvm.loop !159

.critedge:                                        ; preds = %.lr.ph, %1
  %14 = getelementptr inbounds nuw i8, ptr %0, i64 232
  %15 = load ptr, ptr %14, align 8, !tbaa !43
  %.not.i = icmp eq ptr %15, null
  br i1 %.not.i, label %16, label %.critedge.Abc_NtkIncrementTravId.exit_crit_edge

.critedge.Abc_NtkIncrementTravId.exit_crit_edge:  ; preds = %.critedge
  %.phi.trans.insert = getelementptr inbounds nuw i8, ptr %0, i64 32
  %.pre = load ptr, ptr %.phi.trans.insert, align 8, !tbaa !35
  %.phi.trans.insert40 = getelementptr i8, ptr %.pre, i64 4
  %.val32.pre = load i32, ptr %.phi.trans.insert40, align 4, !tbaa !41
  br label %Abc_NtkIncrementTravId.exit

16:                                               ; preds = %.critedge
  %17 = getelementptr inbounds nuw i8, ptr %0, i64 224
  %18 = getelementptr i8, ptr %0, i64 32
  %.val.i = load ptr, ptr %18, align 8, !tbaa !35
  %19 = getelementptr i8, ptr %.val.i, i64 4
  %.val.val.i = load i32, ptr %19, align 4, !tbaa !41
  %20 = add nsw i32 %.val.val.i, 500
  %21 = load i32, ptr %17, align 8, !tbaa !29
  %.not.i.i.i = icmp slt i32 %21, %20
  br i1 %.not.i.i.i, label %22, label %Vec_IntGrow.exit.i.i

22:                                               ; preds = %16
  %23 = sext i32 %20 to i64
  %24 = shl nsw i64 %23, 2
  %25 = tail call noalias ptr @malloc(i64 noundef %24) #22
  store ptr %25, ptr %14, align 8, !tbaa !30
  store i32 %20, ptr %17, align 8, !tbaa !29
  br label %Vec_IntGrow.exit.i.i

Vec_IntGrow.exit.i.i:                             ; preds = %22, %16
  %26 = phi ptr [ %25, %22 ], [ null, %16 ]
  %27 = icmp sgt i32 %.val.val.i, -500
  br i1 %27, label %.lr.ph.i.i, label %Vec_IntFill.exit.i

.lr.ph.i.i:                                       ; preds = %Vec_IntGrow.exit.i.i
  %28 = zext nneg i32 %20 to i64
  %29 = shl nuw nsw i64 %28, 2
  tail call void @llvm.memset.p0.i64(ptr align 4 %26, i8 0, i64 %29, i1 false), !tbaa !31
  br label %Vec_IntFill.exit.i

Vec_IntFill.exit.i:                               ; preds = %.lr.ph.i.i, %Vec_IntGrow.exit.i.i
  %30 = getelementptr inbounds nuw i8, ptr %0, i64 228
  store i32 %20, ptr %30, align 4, !tbaa !28
  br label %Abc_NtkIncrementTravId.exit

Abc_NtkIncrementTravId.exit:                      ; preds = %.critedge.Abc_NtkIncrementTravId.exit_crit_edge, %Vec_IntFill.exit.i
  %.val32 = phi i32 [ %.val32.pre, %.critedge.Abc_NtkIncrementTravId.exit_crit_edge ], [ %.val.val.i, %Vec_IntFill.exit.i ]
  %31 = phi ptr [ %.pre, %.critedge.Abc_NtkIncrementTravId.exit_crit_edge ], [ %.val.i, %Vec_IntFill.exit.i ]
  %32 = getelementptr inbounds nuw i8, ptr %0, i64 216
  %33 = load i32, ptr %32, align 8, !tbaa !14
  %34 = add nsw i32 %33, 1
  store i32 %34, ptr %32, align 8, !tbaa !14
  %35 = getelementptr inbounds nuw i8, ptr %0, i64 32
  %36 = icmp sgt i32 %.val32, 0
  br i1 %36, label %.lr.ph35, label %.critedge2

.lr.ph35:                                         ; preds = %Abc_NtkIncrementTravId.exit, %49
  %37 = phi ptr [ %50, %49 ], [ %31, %Abc_NtkIncrementTravId.exit ]
  %indvars.iv37 = phi i64 [ %indvars.iv.next38, %49 ], [ 0, %Abc_NtkIncrementTravId.exit ]
  %.034 = phi i32 [ %.1, %49 ], [ 0, %Abc_NtkIncrementTravId.exit ]
  %38 = getelementptr i8, ptr %37, i64 8
  %.val24.val = load ptr, ptr %38, align 8, !tbaa !36
  %39 = getelementptr inbounds nuw ptr, ptr %.val24.val, i64 %indvars.iv37
  %40 = load ptr, ptr %39, align 8, !tbaa !38
  %41 = icmp eq ptr %40, null
  br i1 %41, label %49, label %42

42:                                               ; preds = %.lr.ph35
  %43 = getelementptr i8, ptr %40, i64 20
  %.val25 = load i32, ptr %43, align 4
  %44 = and i32 %.val25, 15
  %.not = icmp eq i32 %44, 7
  br i1 %.not, label %45, label %49

45:                                               ; preds = %42
  %46 = tail call i32 @Abc_NtkLevelReverse_rec(ptr noundef nonnull %40)
  %47 = load i32, ptr %43, align 4
  %48 = lshr i32 %47, 12
  %spec.select = tail call i32 @llvm.smax.i32(i32 %.034, i32 %48)
  %.pre42 = load ptr, ptr %35, align 8, !tbaa !35
  br label %49

49:                                               ; preds = %45, %42, %.lr.ph35
  %50 = phi ptr [ %37, %.lr.ph35 ], [ %37, %42 ], [ %.pre42, %45 ]
  %.1 = phi i32 [ %.034, %.lr.ph35 ], [ %.034, %42 ], [ %spec.select, %45 ]
  %indvars.iv.next38 = add nuw nsw i64 %indvars.iv37, 1
  %51 = getelementptr i8, ptr %50, i64 4
  %.val = load i32, ptr %51, align 4, !tbaa !41
  %52 = sext i32 %.val to i64
  %53 = icmp slt i64 %indvars.iv.next38, %52
  br i1 %53, label %.lr.ph35, label %.critedge2, !llvm.loop !160

.critedge2:                                       ; preds = %49, %Abc_NtkIncrementTravId.exit
  %.0.lcssa = phi i32 [ 0, %Abc_NtkIncrementTravId.exit ], [ %.1, %49 ]
  ret i32 %.0.lcssa
}